target datalayout = "e-m:e-p270:32:32-p271:32:32-p272:64:64-i64:64-i128:128-f80:128-n8:16:32:64-S128"
target triple = "x86_64-pc-linux-gnu"

%struct.Gia_Man_t_ = type { ptr, ptr, i32, i32, i32, i32, ptr, ptr, i32, i32, i32, ptr, ptr, %struct.Vec_Int_t_, %struct.Vec_Int_t_, i32, i32, i32, %struct.Vec_Int_t_, ptr, ptr, ptr, i32, i32, i32, i32, ptr, ptr, ptr, ptr, ptr, i32, i32, ptr, i32, ptr, ptr, ptr, ptr, ptr, ptr, ptr, ptr, ptr, ptr, ptr, ptr, ptr, ptr, ptr, ptr, ptr, ptr, %struct.Vec_Int_t_, %struct.Vec_Int_t_, ptr, ptr, ptr, ptr, ptr, ptr, ptr, ptr, ptr, ptr, ptr, ptr, ptr, ptr, ptr, ptr, ptr, ptr, ptr, ptr, ptr, i32, float, float, ptr, ptr, i32, ptr, ptr, ptr, ptr, ptr, ptr, ptr, ptr, ptr, ptr, ptr, ptr, ptr, ptr, ptr, i64, i64, ptr, ptr, i32, i32, i32, i32, i32, i32, i32, i32, i32, i32, i32, i32, ptr, ptr, ptr, ptr, ptr, ptr, ptr, ptr, i32, i32, i32, ptr, i32, i32, ptr, ptr, ptr, ptr, ptr, ptr, i32, i32, ptr, %struct.Vec_Int_t_, %struct.Vec_Int_t_, %struct.Vec_Int_t_, ptr, ptr, ptr }
%struct.Vec_Int_t_ = type { i32, i32, ptr }
%struct.Gia_Obj_t_ = type <{ i64, i32 }>

@.str.19 = private unnamed_addr constant [2 x i8] c"\0A\00", align 1
@.str.70 = private unnamed_addr constant [30 x i8] c"static int s_ArraySize = %d;\0A\00", align 1
@.str.71 = private unnamed_addr constant [32 x i8] c"static int s_ArrayData[%d] = {\0A\00", align 1
@.str.72 = private unnamed_addr constant [10 x i8] c"    0, 0,\00", align 1
@.str.73 = private unnamed_addr constant [6 x i8] c"\0A    \00", align 1
@.str.74 = private unnamed_addr constant [8 x i8] c"0, 0,  \00", align 1
@.str.75 = private unnamed_addr constant [10 x i8] c"%d, %d,  \00", align 1
@.str.76 = private unnamed_addr constant [4 x i8] c"};\0A\00", align 1

; Function Attrs: nounwind uwtable
define internal i32 @Gia_ObjFaninId1(ptr noundef %0, i32 noundef %1) #0 {
  %3 = alloca ptr, align 8
  %4 = alloca i32, align 4
  store ptr %0, ptr %3, align 8
  store i32 %1, ptr %4, align 4
  %5 = load i32, ptr %4, align 4
  %6 = load ptr, ptr %3, align 8
  %7 = load i64, ptr %6, align 4
  %8 = lshr i64 %7, 32
  %9 = and i64 %8, 536870911
  %10 = trunc i64 %9 to i32
  %11 = sub nsw i32 %5, %10
  ret i32 %11
}

; Function Attrs: nounwind uwtable
define internal i32 @Gia_ObjFaninId0(ptr noundef %0, i32 noundef %1) #0 {
  %3 = alloca ptr, align 8
  %4 = alloca i32, align 4
  store ptr %0, ptr %3, align 8
  store i32 %1, ptr %4, align 4
  %5 = load i32, ptr %4, align 4
  %6 = load ptr, ptr %3, align 8
  %7 = load i64, ptr %6, align 4
  %8 = and i64 %7, 536870911
  %9 = trunc i64 %8 to i32
  %10 = sub nsw i32 %5, %9
  ret i32 %10
}

; Function Attrs: nounwind uwtable
define internal i32 @Gia_ObjId(ptr noundef %0, ptr noundef %1) #0 {
  %3 = alloca ptr, align 8
  %4 = alloca ptr, align 8
  store ptr %0, ptr %3, align 8
  store ptr %1, ptr %4, align 8
  %5 = load ptr, ptr %4, align 8
  %6 = load ptr, ptr %3, align 8
  %7 = getelementptr inbounds %struct.Gia_Man_t_, ptr %6, i32 0, i32 6
  %8 = load ptr, ptr %7, align 8
  %9 = ptrtoint ptr %5 to i64
  %10 = ptrtoint ptr %8 to i64
  %11 = sub i64 %9, %10
  %12 = sdiv exact i64 %11, 12
  %13 = trunc i64 %12 to i32
  ret i32 %13
}

; Function Attrs: nounwind uwtable
define internal i32 @Gia_ObjFaninC1(ptr noundef %0) #0 {
  %2 = alloca ptr, align 8
  store ptr %0, ptr %2, align 8
  %3 = load ptr, ptr %2, align 8
  %4 = load i64, ptr %3, align 4
  %5 = lshr i64 %4, 61
  %6 = and i64 %5, 1
  %7 = trunc i64 %6 to i32
  ret i32 %7
}

; Function Attrs: nounwind uwtable
define internal i32 @Gia_ObjFaninId1p(ptr noundef %0, ptr noundef %1) #0 {
  %3 = alloca ptr, align 8
  %4 = alloca ptr, align 8
  store ptr %0, ptr %3, align 8
  store ptr %1, ptr %4, align 8
  %5 = load ptr, ptr %4, align 8
  %6 = load ptr, ptr %3, align 8
  %7 = load ptr, ptr %4, align 8
  %8 = call i32 @Gia_ObjId(ptr noundef %6, ptr noundef %7)
  %9 = call i32 @Gia_ObjFaninId1(ptr noundef %5, i32 noundef %8)
  ret i32 %9
}

; Function Attrs: nounwind uwtable
define internal i32 @Abc_Var2Lit(i32 noundef %0, i32 noundef %1) #0 {
  %3 = alloca i32, align 4
  %4 = alloca i32, align 4
  store i32 %0, ptr %3, align 4
  store i32 %1, ptr %4, align 4
  %5 = load i32, ptr %3, align 4
  %6 = load i32, ptr %3, align 4
  %7 = add nsw i32 %5, %6
  %8 = load i32, ptr %4, align 4
  %9 = add nsw i32 %7, %8
  ret i32 %9
}

; Function Attrs: nounwind uwtable
define internal i32 @Gia_ObjFaninC0(ptr noundef %0) #0 {
  %2 = alloca ptr, align 8
  store ptr %0, ptr %2, align 8
  %3 = load ptr, ptr %2, align 8
  %4 = load i64, ptr %3, align 4
  %5 = lshr i64 %4, 29
  %6 = and i64 %5, 1
  %7 = trunc i64 %6 to i32
  ret i32 %7
}

; Function Attrs: nounwind uwtable
define internal i32 @Gia_ObjFaninId0p(ptr noundef %0, ptr noundef %1) #0 {
  %3 = alloca ptr, align 8
  %4 = alloca ptr, align 8
  store ptr %0, ptr %3, align 8
  store ptr %1, ptr %4, align 8
  %5 = load ptr, ptr %4, align 8
  %6 = load ptr, ptr %3, align 8
  %7 = load ptr, ptr %4, align 8
  %8 = call i32 @Gia_ObjId(ptr noundef %6, ptr noundef %7)
  %9 = call i32 @Gia_ObjFaninId0(ptr noundef %5, i32 noundef %8)
  ret i32 %9
}

; Function Attrs: nounwind uwtable
define internal i32 @Vec_IntEntry(ptr noundef %0, i32 noundef %1) #0 {
  %3 = alloca ptr, align 8
  %4 = alloca i32, align 4
  store ptr %0, ptr %3, align 8
  store i32 %1, ptr %4, align 4
  %5 = load ptr, ptr %3, align 8
  %6 = getelementptr inbounds %struct.Vec_Int_t_, ptr %5, i32 0, i32 2
  %7 = load ptr, ptr %6, align 8
  %8 = load i32, ptr %4, align 4
  %9 = sext i32 %8 to i64
  %10 = getelementptr inbounds i32, ptr %7, i64 %9
  %11 = load i32, ptr %10, align 4
  ret i32 %11
}

; Function Attrs: nounwind uwtable
define internal ptr @Gia_ManCo(ptr noundef %0, i32 noundef %1) #0 {
  %3 = alloca ptr, align 8
  %4 = alloca i32, align 4
  store ptr %0, ptr %3, align 8
  store i32 %1, ptr %4, align 4
  %5 = load ptr, ptr %3, align 8
  %6 = load ptr, ptr %3, align 8
  %7 = getelementptr inbounds %struct.Gia_Man_t_, ptr %6, i32 0, i32 12
  %8 = load ptr, ptr %7, align 8
  %9 = load i32, ptr %4, align 4
  %10 = call i32 @Vec_IntEntry(ptr noundef %8, i32 noundef %9)
  %11 = call ptr @Gia_ManObj(ptr noundef %5, i32 noundef %10)
  ret ptr %11
}

; Function Attrs: nounwind uwtable
define internal i32 @Gia_ObjFaninLit1p(ptr noundef %0, ptr noundef %1) #0 {
  %3 = alloca ptr, align 8
  %4 = alloca ptr, align 8
  store ptr %0, ptr %3, align 8
  store ptr %1, ptr %4, align 8
  %5 = load ptr, ptr %3, align 8
  %6 = load ptr, ptr %4, align 8
  %7 = call i32 @Gia_ObjFaninId1p(ptr noundef %5, ptr noundef %6)
  %8 = load ptr, ptr %4, align 8
  %9 = call i32 @Gia_ObjFaninC1(ptr noundef %8)
  %10 = call i32 @Abc_Var2Lit(i32 noundef %7, i32 noundef %9)
  ret i32 %10
}

; Function Attrs: nounwind uwtable
define internal i32 @Gia_ObjFaninLit0p(ptr noundef %0, ptr noundef %1) #0 {
  %3 = alloca ptr, align 8
  %4 = alloca ptr, align 8
  store ptr %0, ptr %3, align 8
  store ptr %1, ptr %4, align 8
  %5 = load ptr, ptr %3, align 8
  %6 = load ptr, ptr %4, align 8
  %7 = call i32 @Gia_ObjFaninId0p(ptr noundef %5, ptr noundef %6)
  %8 = load ptr, ptr %4, align 8
  %9 = call i32 @Gia_ObjFaninC0(ptr noundef %8)
  %10 = call i32 @Abc_Var2Lit(i32 noundef %7, i32 noundef %9)
  ret i32 %10
}

; Function Attrs: nounwind uwtable
define internal i32 @Gia_ObjIsAnd(ptr noundef %0) #0 {
  %2 = alloca ptr, align 8
  store ptr %0, ptr %2, align 8
  %3 = load ptr, ptr %2, align 8
  %4 = load i64, ptr %3, align 4
  %5 = lshr i64 %4, 31
  %6 = and i64 %5, 1
  %7 = trunc i64 %6 to i32
  %8 = icmp ne i32 %7, 0
  br i1 %8, label %15, label %9

9:                                                ; preds = %1
  %10 = load ptr, ptr %2, align 8
  %11 = load i64, ptr %10, align 4
  %12 = and i64 %11, 536870911
  %13 = trunc i64 %12 to i32
  %14 = icmp ne i32 %13, 536870911
  br label %15

15:                                               ; preds = %9, %1
  %16 = phi i1 [ false, %1 ], [ %14, %9 ]
  %17 = zext i1 %16 to i32
  ret i32 %17
}

; Function Attrs: nounwind uwtable
define internal ptr @Gia_ManObj(ptr noundef %0, i32 noundef %1) #0 {
  %3 = alloca ptr, align 8
  %4 = alloca i32, align 4
  store ptr %0, ptr %3, align 8
  store i32 %1, ptr %4, align 4
  %5 = load ptr, ptr %3, align 8
  %6 = getelementptr inbounds %struct.Gia_Man_t_, ptr %5, i32 0, i32 6
  %7 = load ptr, ptr %6, align 8
  %8 = load i32, ptr %4, align 4
  %9 = sext i32 %8 to i64
  %10 = getelementptr inbounds %struct.Gia_Obj_t_, ptr %7, i64 %9
  ret ptr %10
}

; Function Attrs: nounwind uwtable
define internal ptr @Gia_ManCi(ptr noundef %0, i32 noundef %1) #0 {
  %3 = alloca ptr, align 8
  %4 = alloca i32, align 4
  store ptr %0, ptr %3, align 8
  store i32 %1, ptr %4, align 4
  %5 = load ptr, ptr %3, align 8
  %6 = load ptr, ptr %3, align 8
  %7 = getelementptr inbounds %struct.Gia_Man_t_, ptr %6, i32 0, i32 11
  %8 = load ptr, ptr %7, align 8
  %9 = load i32, ptr %4, align 4
  %10 = call i32 @Vec_IntEntry(ptr noundef %8, i32 noundef %9)
  %11 = call ptr @Gia_ManObj(ptr noundef %5, i32 noundef %10)
  ret ptr %11
}

; Function Attrs: nounwind uwtable
define internal i32 @Vec_IntSize(ptr noundef %0) #0 {
  %2 = alloca ptr, align 8
  store ptr %0, ptr %2, align 8
  %3 = load ptr, ptr %2, align 8
  %4 = getelementptr inbounds %struct.Vec_Int_t_, ptr %3, i32 0, i32 1
  %5 = load i32, ptr %4, align 4
  ret i32 %5
}

; Function Attrs: nounwind uwtable
define internal i32 @Gia_ManObjNum(ptr noundef %0) #0 {
  %2 = alloca ptr, align 8
  store ptr %0, ptr %2, align 8
  %3 = load ptr, ptr %2, align 8
  %4 = getelementptr inbounds %struct.Gia_Man_t_, ptr %3, i32 0, i32 4
  %5 = load i32, ptr %4, align 8
  ret i32 %5
}

; Function Attrs: nounwind uwtable
define void @Gia_ManPrintArray(ptr noundef %0) #0 {
  %2 = alloca ptr, align 8
  %3 = alloca ptr, align 8
  %4 = alloca i32, align 4
  %5 = alloca i32, align 4
  store ptr %0, ptr %2, align 8
  %6 = load ptr, ptr %2, align 8
  %7 = call i32 @Gia_ManObjNum(ptr noundef %6)
  store i32 %7, ptr %5, align 4
  %8 = load i32, ptr %5, align 4
  %9 = call i32 (ptr, ...) @printf(ptr noundef @.str.70, i32 noundef %8)
  %10 = load i32, ptr %5, align 4
  %11 = mul nsw i32 2, %10
  %12 = call i32 (ptr, ...) @printf(ptr noundef @.str.71, i32 noundef %11)
  %13 = call i32 (ptr, ...) @printf(ptr noundef @.str.72)
  %14 = call i32 (ptr, ...) @printf(ptr noundef @.str.73)
  store i32 0, ptr %4, align 4
  br label %15

15:                                               ; preds = %31, %1
  %16 = load i32, ptr %4, align 4
  %17 = load ptr, ptr %2, align 8
  %18 = getelementptr inbounds %struct.Gia_Man_t_, ptr %17, i32 0, i32 11
  %19 = load ptr, ptr %18, align 8
  %20 = call i32 @Vec_IntSize(ptr noundef %19)
  %21 = icmp slt i32 %16, %20
  br i1 %21, label %22, label %27

22:                                               ; preds = %15
  %23 = load ptr, ptr %2, align 8
  %24 = load i32, ptr %4, align 4
  %25 = call ptr @Gia_ManCi(ptr noundef %23, i32 noundef %24)
  store ptr %25, ptr %3, align 8
  %26 = icmp ne ptr %25, null
  br label %27

27:                                               ; preds = %22, %15
  %28 = phi i1 [ false, %15 ], [ %26, %22 ]
  br i1 %28, label %29, label %34

29:                                               ; preds = %27
  %30 = call i32 (ptr, ...) @printf(ptr noundef @.str.74)
  br label %31

31:                                               ; preds = %29
  %32 = load i32, ptr %4, align 4
  %33 = add nsw i32 %32, 1
  store i32 %33, ptr %4, align 4
  br label %15, !llvm.loop !176

34:                                               ; preds = %27
  %35 = call i32 (ptr, ...) @printf(ptr noundef @.str.73)
  store i32 0, ptr %4, align 4
  br label %36

36:                                               ; preds = %63, %34
  %37 = load i32, ptr %4, align 4
  %38 = load ptr, ptr %2, align 8
  %39 = getelementptr inbounds %struct.Gia_Man_t_, ptr %38, i32 0, i32 4
  %40 = load i32, ptr %39, align 8
  %41 = icmp slt i32 %37, %40
  br i1 %41, label %42, label %47

42:                                               ; preds = %36
  %43 = load ptr, ptr %2, align 8
  %44 = load i32, ptr %4, align 4
  %45 = call ptr @Gia_ManObj(ptr noundef %43, i32 noundef %44)
  store ptr %45, ptr %3, align 8
  %46 = icmp ne ptr %45, null
  br label %47

47:                                               ; preds = %42, %36
  %48 = phi i1 [ false, %36 ], [ %46, %42 ]
  br i1 %48, label %49, label %66

49:                                               ; preds = %47
  %50 = load ptr, ptr %3, align 8
  %51 = call i32 @Gia_ObjIsAnd(ptr noundef %50)
  %52 = icmp ne i32 %51, 0
  br i1 %52, label %54, label %53

53:                                               ; preds = %49
  br label %62

54:                                               ; preds = %49
  %55 = load ptr, ptr %2, align 8
  %56 = load ptr, ptr %3, align 8
  %57 = call i32 @Gia_ObjFaninLit0p(ptr noundef %55, ptr noundef %56)
  %58 = load ptr, ptr %2, align 8
  %59 = load ptr, ptr %3, align 8
  %60 = call i32 @Gia_ObjFaninLit1p(ptr noundef %58, ptr noundef %59)
  %61 = call i32 (ptr, ...) @printf(ptr noundef @.str.75, i32 noundef %57, i32 noundef %60)
  br label %62

62:                                               ; preds = %54, %53
  br label %63

63:                                               ; preds = %62
  %64 = load i32, ptr %4, align 4
  %65 = add nsw i32 %64, 1
  store i32 %65, ptr %4, align 4
  br label %36, !llvm.loop !177

66:                                               ; preds = %47
  %67 = call i32 (ptr, ...) @printf(ptr noundef @.str.73)
  store i32 0, ptr %4, align 4
  br label %68

68:                                               ; preds = %90, %66
  %69 = load i32, ptr %4, align 4
  %70 = load ptr, ptr %2, align 8
  %71 = getelementptr inbounds %struct.Gia_Man_t_, ptr %70, i32 0, i32 12
  %72 = load ptr, ptr %71, align 8
  %73 = call i32 @Vec_IntSize(ptr noundef %72)
  %74 = icmp slt i32 %69, %73
  br i1 %74, label %75, label %80

75:                                               ; preds = %68
  %76 = load ptr, ptr %2, align 8
  %77 = load i32, ptr %4, align 4
  %78 = call ptr @Gia_ManCo(ptr noundef %76, i32 noundef %77)
  store ptr %78, ptr %3, align 8
  %79 = icmp ne ptr %78, null
  br label %80

80:                                               ; preds = %75, %68
  %81 = phi i1 [ false, %68 ], [ %79, %75 ]
  br i1 %81, label %82, label %93

82:                                               ; preds = %80
  %83 = load ptr, ptr %2, align 8
  %84 = load ptr, ptr %3, align 8
  %85 = call i32 @Gia_ObjFaninLit0p(ptr noundef %83, ptr noundef %84)
  %86 = load ptr, ptr %2, align 8
  %87 = load ptr, ptr %3, align 8
  %88 = call i32 @Gia_ObjFaninLit0p(ptr noundef %86, ptr noundef %87)
  %89 = call i32 (ptr, ...) @printf(ptr noundef @.str.75, i32 noundef %85, i32 noundef %88)
  br label %90

90:                                               ; preds = %82
  %91 = load i32, ptr %4, align 4
  %92 = add nsw i32 %91, 1
  store i32 %92, ptr %4, align 4
  br label %68, !llvm.loop !178

93:                                               ; preds = %80
  %94 = call i32 (ptr, ...) @printf(ptr noundef @.str.19)
  %95 = call i32 (ptr, ...) @printf(ptr noundef @.str.76)
  ret void
}