; Function Attrs: nofree nounwind uwtable
define void @Gia_ManPrintArray(ptr noundef readonly captures(none) %0) local_unnamed_addr #15 {
  %2 = getelementptr i8, ptr %0, i64 24
  %.val = load i32, ptr %2, align 8
  %3 = tail call i32 (ptr, ...) @printf(ptr noundef nonnull dereferenceable(1) @.str.70, i32 noundef %.val)
  %4 = shl nsw i32 %.val, 1
  %5 = tail call i32 (ptr, ...) @printf(ptr noundef nonnull dereferenceable(1) @.str.71, i32 noundef %4)
  %6 = tail call i32 (ptr, ...) @printf(ptr noundef nonnull dereferenceable(1) @.str.72)
  %7 = tail call i32 (ptr, ...) @printf(ptr noundef nonnull dereferenceable(1) @.str.73)
  %8 = getelementptr i8, ptr %0, i64 32
  %9 = getelementptr inbounds nuw i8, ptr %0, i64 64
  %10 = load ptr, ptr %9, align 8
  %11 = getelementptr i8, ptr %10, i64 4
  %.val3851 = load i32, ptr %11, align 4
  %12 = icmp sgt i32 %.val3851, 0
  br i1 %12, label %.lr.ph, label %.critedge

.lr.ph:                                           ; preds = %1, %13
  %.052 = phi i32 [ %15, %13 ], [ 0, %1 ]
  %.val39 = load ptr, ptr %8, align 8
  %.not = icmp eq ptr %.val39, null
  br i1 %.not, label %.critedge, label %13

13:                                               ; preds = %.lr.ph
  %14 = tail call i32 (ptr, ...) @printf(ptr noundef nonnull dereferenceable(1) @.str.74)
  %15 = add nuw nsw i32 %.052, 1
  %16 = load ptr, ptr %9, align 8
  %17 = getelementptr i8, ptr %16, i64 4
  %.val38 = load i32, ptr %17, align 4
  %18 = icmp slt i32 %15, %.val38
  br i1 %18, label %.lr.ph, label %.critedge, !llvm.loop !171

.critedge:                                        ; preds = %.lr.ph, %13, %1
  %19 = tail call i32 (ptr, ...) @printf(ptr noundef nonnull dereferenceable(1) @.str.73)
  %20 = load i32, ptr %2, align 8
  %21 = icmp sgt i32 %20, 0
  br i1 %21, label %.lr.ph55, label %.critedge2

.lr.ph55:                                         ; preds = %.critedge, %47
  %22 = phi i32 [ %48, %47 ], [ %20, %.critedge ]
  %indvars.iv = phi i64 [ %indvars.iv.next, %47 ], [ 0, %.critedge ]
  %.val35 = load ptr, ptr %8, align 8
  %.not32 = icmp eq ptr %.val35, null
  br i1 %.not32, label %.critedge2, label %23

23:                                               ; preds = %.lr.ph55
  %24 = getelementptr inbounds nuw %struct.Gia_Obj_t_, ptr %.val35, i64 %indvars.iv
  %.val36 = load i64, ptr %24, align 4
  %25 = and i64 %.val36, 2147483648
  %.not.i = icmp ne i64 %25, 0
  %26 = and i64 %.val36, 536870911
  %27 = icmp eq i64 %26, 536870911
  %narrow.i.not = or i1 %.not.i, %27
  br i1 %narrow.i.not, label %47, label %28

28:                                               ; preds = %23
  %29 = trunc i64 %.val36 to i32
  %30 = and i32 %29, 536870911
  %31 = trunc nuw nsw i64 %indvars.iv to i32
  %32 = sub nsw i32 %31, %30
  %33 = lshr i32 %29, 29
  %34 = and i32 %33, 1
  %35 = shl nsw i32 %32, 1
  %36 = or disjoint i32 %35, %34
  %37 = lshr i64 %.val36, 32
  %38 = trunc nuw i64 %37 to i32
  %39 = and i32 %38, 536870911
  %40 = sub nsw i32 %31, %39
  %41 = lshr i64 %.val36, 61
  %42 = trunc nuw nsw i64 %41 to i32
  %43 = and i32 %42, 1
  %44 = shl nsw i32 %40, 1
  %45 = or disjoint i32 %44, %43
  %46 = tail call i32 (ptr, ...) @printf(ptr noundef nonnull dereferenceable(1) @.str.75, i32 noundef %36, i32 noundef %45)
  %.pre = load i32, ptr %2, align 8
  br label %47

47:                                               ; preds = %28, %23
  %48 = phi i32 [ %.pre, %28 ], [ %22, %23 ]
  %indvars.iv.next = add nuw nsw i64 %indvars.iv, 1
  %49 = sext i32 %48 to i64
  %50 = icmp slt i64 %indvars.iv.next, %49
  br i1 %50, label %.lr.ph55, label %.critedge2, !llvm.loop !172

.critedge2:                                       ; preds = %.lr.ph55, %47, %.critedge
  %51 = tail call i32 (ptr, ...) @printf(ptr noundef nonnull dereferenceable(1) @.str.73)
  %52 = getelementptr inbounds nuw i8, ptr %0, i64 72
  %53 = load ptr, ptr %52, align 8
  %54 = getelementptr i8, ptr %53, i64 4
  %.val3757 = load i32, ptr %54, align 4
  %55 = icmp sgt i32 %.val3757, 0
  br i1 %55, label %.lr.ph59, label %.critedge4

.lr.ph59:                                         ; preds = %.critedge2, %57
  %indvars.iv62 = phi i64 [ %indvars.iv.next63, %57 ], [ 0, %.critedge2 ]
  %56 = phi ptr [ %71, %57 ], [ %53, %.critedge2 ]
  %.val41 = load ptr, ptr %8, align 8
  %.not33 = icmp eq ptr %.val41, null
  br i1 %.not33, label %.critedge4, label %57

57:                                               ; preds = %.lr.ph59
  %58 = getelementptr i8, ptr %56, i64 8
  %.val42.val = load ptr, ptr %58, align 8
  %59 = getelementptr inbounds nuw i32, ptr %.val42.val, i64 %indvars.iv62
  %60 = load i32, ptr %59, align 4
  %61 = sext i32 %60 to i64
  %62 = getelementptr inbounds %struct.Gia_Obj_t_, ptr %.val41, i64 %61
  %.val3.i.i48 = load i64, ptr %62, align 4
  %63 = trunc i64 %.val3.i.i48 to i32
  %64 = and i32 %63, 536870911
  %65 = sub nsw i32 %60, %64
  %66 = lshr i32 %63, 29
  %67 = and i32 %66, 1
  %68 = shl nsw i32 %65, 1
  %69 = or disjoint i32 %68, %67
  %70 = tail call i32 (ptr, ...) @printf(ptr noundef nonnull dereferenceable(1) @.str.75, i32 noundef %69, i32 noundef %69)
  %indvars.iv.next63 = add nuw nsw i64 %indvars.iv62, 1
  %71 = load ptr, ptr %52, align 8
  %72 = getelementptr i8, ptr %71, i64 4
  %.val37 = load i32, ptr %72, align 4
  %73 = sext i32 %.val37 to i64
  %74 = icmp slt i64 %indvars.iv.next63, %73
  br i1 %74, label %.lr.ph59, label %.critedge4, !llvm.loop !173

.critedge4:                                       ; preds = %.lr.ph59, %57, %.critedge2
  %putchar = tail call i32 @putchar(i32 10)
  %puts = tail call i32 @puts(ptr nonnull dereferenceable(1) @str.2)
  ret void
}